target datalayout = "e-m:e-p270:32:32-p271:32:32-p272:64:64-i64:64-i128:128-f80:128-n8:16:32:64-S128"
target triple = "x86_64-pc-linux-gnu"

%struct.Psr_Man_t_ = type { ptr, ptr, ptr, ptr, ptr, ptr, ptr, %struct.Vec_Str_t_, %struct.Vec_Int_t_, %struct.Vec_Int_t_, %struct.Vec_Int_t_, %struct.Vec_Int_t_, %struct.Vec_Int_t_, i32, [1000 x i8] }
%struct.Vec_Str_t_ = type { i32, i32, ptr }
%struct.Vec_Int_t_ = type { i32, i32, ptr }

@.str.2 = private unnamed_addr constant [30 x i8] c"Succeeded parsing %d models:\0A\00", align 1
@.str.3 = private unnamed_addr constant [4 x i8] c" %s\00", align 1
@.str.4 = private unnamed_addr constant [2 x i8] c"\0A\00", align 1
@.str.5 = private unnamed_addr constant [26 x i8] c"Skipped %d known models:\0A\00", align 1
@.str.6 = private unnamed_addr constant [27 x i8] c"Skipped %d failed models:\0A\00", align 1

; Function Attrs: inlinehint nounwind uwtable
define internal i32 @Vec_IntEntry(ptr noundef %0, i32 noundef %1) #1 {
  %3 = alloca ptr, align 8
  %4 = alloca i32, align 4
  store ptr %0, ptr %3, align 8, !tbaa !8
  store i32 %1, ptr %4, align 4, !tbaa !11
  %5 = load ptr, ptr %3, align 8, !tbaa !8
  %6 = getelementptr inbounds nuw %struct.Vec_Int_t_, ptr %5, i32 0, i32 2
  %7 = load ptr, ptr %6, align 8, !tbaa !27
  %8 = load i32, ptr %4, align 4, !tbaa !11
  %9 = sext i32 %8 to i64
  %10 = getelementptr inbounds i32, ptr %7, i64 %9
  %11 = load i32, ptr %10, align 4, !tbaa !11
  ret i32 %11
}

; Function Attrs: inlinehint nounwind uwtable
define internal i32 @Vec_IntSize(ptr noundef %0) #1 {
  %2 = alloca ptr, align 8
  store ptr %0, ptr %2, align 8, !tbaa !8
  %3 = load ptr, ptr %2, align 8, !tbaa !8
  %4 = getelementptr inbounds nuw %struct.Vec_Int_t_, ptr %3, i32 0, i32 1
  %5 = load i32, ptr %4, align 4, !tbaa !22
  ret i32 %5
}

; Function Attrs: nounwind uwtable
define void @Psr_ManPrintModules(ptr noundef %0) #0 {
  %2 = alloca ptr, align 8
  %3 = alloca ptr, align 8
  %4 = alloca i32, align 4
  store ptr %0, ptr %2, align 8, !tbaa !3
  call void @llvm.lifetime.start.p0(i64 8, ptr %3) #11
  call void @llvm.lifetime.start.p0(i64 4, ptr %4) #11
  %5 = load ptr, ptr %2, align 8, !tbaa !3
  %6 = getelementptr inbounds nuw %struct.Psr_Man_t_, ptr %5, i32 0, i32 12
  %7 = call i32 @Vec_IntSize(ptr noundef %6)
  %8 = call i32 (ptr, ...) @printf(ptr noundef @.str.2, i32 noundef %7)
  store i32 0, ptr %4, align 4, !tbaa !11
  br label %9

9:                                                ; preds = %30, %1
  %10 = load i32, ptr %4, align 4, !tbaa !11
  %11 = load ptr, ptr %2, align 8, !tbaa !3
  %12 = getelementptr inbounds nuw %struct.Psr_Man_t_, ptr %11, i32 0, i32 12
  %13 = call i32 @Vec_IntSize(ptr noundef %12)
  %14 = icmp slt i32 %10, %13
  br i1 %14, label %15, label %25

15:                                               ; preds = %9
  %16 = load ptr, ptr %2, align 8, !tbaa !3
  %17 = getelementptr inbounds nuw %struct.Psr_Man_t_, ptr %16, i32 0, i32 4
  %18 = load ptr, ptr %17, align 8, !tbaa !28
  %19 = load ptr, ptr %2, align 8, !tbaa !3
  %20 = getelementptr inbounds nuw %struct.Psr_Man_t_, ptr %19, i32 0, i32 12
  %21 = load i32, ptr %4, align 4, !tbaa !11
  %22 = call i32 @Vec_IntEntry(ptr noundef %20, i32 noundef %21)
  %23 = call ptr @Abc_NamStr(ptr noundef %18, i32 noundef %22)
  store ptr %23, ptr %3, align 8, !tbaa !25
  %24 = icmp ne ptr %23, null
  br label %25

25:                                               ; preds = %15, %9
  %26 = phi i1 [ false, %9 ], [ %24, %15 ]
  br i1 %26, label %27, label %33

27:                                               ; preds = %25
  %28 = load ptr, ptr %3, align 8, !tbaa !25
  %29 = call i32 (ptr, ...) @printf(ptr noundef @.str.3, ptr noundef %28)
  br label %30

30:                                               ; preds = %27
  %31 = load i32, ptr %4, align 4, !tbaa !11
  %32 = add nsw i32 %31, 1
  store i32 %32, ptr %4, align 4, !tbaa !11
  br label %9, !llvm.loop !29

33:                                               ; preds = %25
  %34 = call i32 (ptr, ...) @printf(ptr noundef @.str.4)
  %35 = load ptr, ptr %2, align 8, !tbaa !3
  %36 = getelementptr inbounds nuw %struct.Psr_Man_t_, ptr %35, i32 0, i32 10
  %37 = call i32 @Vec_IntSize(ptr noundef %36)
  %38 = call i32 (ptr, ...) @printf(ptr noundef @.str.5, i32 noundef %37)
  store i32 0, ptr %4, align 4, !tbaa !11
  br label %39

39:                                               ; preds = %60, %33
  %40 = load i32, ptr %4, align 4, !tbaa !11
  %41 = load ptr, ptr %2, align 8, !tbaa !3
  %42 = getelementptr inbounds nuw %struct.Psr_Man_t_, ptr %41, i32 0, i32 10
  %43 = call i32 @Vec_IntSize(ptr noundef %42)
  %44 = icmp slt i32 %40, %43
  br i1 %44, label %45, label %55

45:                                               ; preds = %39
  %46 = load ptr, ptr %2, align 8, !tbaa !3
  %47 = getelementptr inbounds nuw %struct.Psr_Man_t_, ptr %46, i32 0, i32 4
  %48 = load ptr, ptr %47, align 8, !tbaa !28
  %49 = load ptr, ptr %2, align 8, !tbaa !3
  %50 = getelementptr inbounds nuw %struct.Psr_Man_t_, ptr %49, i32 0, i32 10
  %51 = load i32, ptr %4, align 4, !tbaa !11
  %52 = call i32 @Vec_IntEntry(ptr noundef %50, i32 noundef %51)
  %53 = call ptr @Abc_NamStr(ptr noundef %48, i32 noundef %52)
  store ptr %53, ptr %3, align 8, !tbaa !25
  %54 = icmp ne ptr %53, null
  br label %55

55:                                               ; preds = %45, %39
  %56 = phi i1 [ false, %39 ], [ %54, %45 ]
  br i1 %56, label %57, label %63

57:                                               ; preds = %55
  %58 = load ptr, ptr %3, align 8, !tbaa !25
  %59 = call i32 (ptr, ...) @printf(ptr noundef @.str.3, ptr noundef %58)
  br label %60

60:                                               ; preds = %57
  %61 = load i32, ptr %4, align 4, !tbaa !11
  %62 = add nsw i32 %61, 1
  store i32 %62, ptr %4, align 4, !tbaa !11
  br label %39, !llvm.loop !31

63:                                               ; preds = %55
  %64 = call i32 (ptr, ...) @printf(ptr noundef @.str.4)
  %65 = load ptr, ptr %2, align 8, !tbaa !3
  %66 = getelementptr inbounds nuw %struct.Psr_Man_t_, ptr %65, i32 0, i32 11
  %67 = call i32 @Vec_IntSize(ptr noundef %66)
  %68 = call i32 (ptr, ...) @printf(ptr noundef @.str.6, i32 noundef %67)
  store i32 0, ptr %4, align 4, !tbaa !11
  br label %69

69:                                               ; preds = %90, %63
  %70 = load i32, ptr %4, align 4, !tbaa !11
  %71 = load ptr, ptr %2, align 8, !tbaa !3
  %72 = getelementptr inbounds nuw %struct.Psr_Man_t_, ptr %71, i32 0, i32 11
  %73 = call i32 @Vec_IntSize(ptr noundef %72)
  %74 = icmp slt i32 %70, %73
  br i1 %74, label %75, label %85

75:                                               ; preds = %69
  %76 = load ptr, ptr %2, align 8, !tbaa !3
  %77 = getelementptr inbounds nuw %struct.Psr_Man_t_, ptr %76, i32 0, i32 4
  %78 = load ptr, ptr %77, align 8, !tbaa !28
  %79 = load ptr, ptr %2, align 8, !tbaa !3
  %80 = getelementptr inbounds nuw %struct.Psr_Man_t_, ptr %79, i32 0, i32 11
  %81 = load i32, ptr %4, align 4, !tbaa !11
  %82 = call i32 @Vec_IntEntry(ptr noundef %80, i32 noundef %81)
  %83 = call ptr @Abc_NamStr(ptr noundef %78, i32 noundef %82)
  store ptr %83, ptr %3, align 8, !tbaa !25
  %84 = icmp ne ptr %83, null
  br label %85

85:                                               ; preds = %75, %69
  %86 = phi i1 [ false, %69 ], [ %84, %75 ]
  br i1 %86, label %87, label %93

87:                                               ; preds = %85
  %88 = load ptr, ptr %3, align 8, !tbaa !25
  %89 = call i32 (ptr, ...) @printf(ptr noundef @.str.3, ptr noundef %88)
  br label %90

90:                                               ; preds = %87
  %91 = load i32, ptr %4, align 4, !tbaa !11
  %92 = add nsw i32 %91, 1
  store i32 %92, ptr %4, align 4, !tbaa !11
  br label %69, !llvm.loop !32

93:                                               ; preds = %85
  %94 = call i32 (ptr, ...) @printf(ptr noundef @.str.4)
  call void @llvm.lifetime.end.p0(i64 4, ptr %4) #11
  call void @llvm.lifetime.end.p0(i64 8, ptr %3) #11
  ret void
}