; Function Attrs: nounwind uwtable
define void @Psr_ManPrintModules(ptr noundef readonly captures(none) %0) local_unnamed_addr #0 {
  %2 = getelementptr i8, ptr %0, i64 140
  %.val = load i32, ptr %2, align 4, !tbaa !3
  %3 = tail call i32 (ptr, ...) @printf(ptr noundef nonnull dereferenceable(1) @.str.2, i32 noundef %.val)
  %4 = getelementptr inbounds nuw i8, ptr %0, i64 32
  %.val3442 = load i32, ptr %2, align 4, !tbaa !3
  %5 = icmp sgt i32 %.val3442, 0
  br i1 %5, label %.lr.ph, label %.critedge

.lr.ph:                                           ; preds = %1
  %6 = getelementptr i8, ptr %0, i64 144
  br label %7

7:                                                ; preds = %.lr.ph, %12
  %indvars.iv = phi i64 [ 0, %.lr.ph ], [ %indvars.iv.next, %12 ]
  %8 = load ptr, ptr %4, align 8, !tbaa !31
  %.val39 = load ptr, ptr %6, align 8, !tbaa !11
  %9 = getelementptr inbounds nuw i32, ptr %.val39, i64 %indvars.iv
  %10 = load i32, ptr %9, align 4, !tbaa !12
  %11 = tail call ptr @Abc_NamStr(ptr noundef %8, i32 noundef %10) #20
  %.not = icmp eq ptr %11, null
  br i1 %.not, label %.critedge, label %12

12:                                               ; preds = %7
  %13 = tail call i32 (ptr, ...) @printf(ptr noundef nonnull dereferenceable(1) @.str.3, ptr noundef nonnull %11)
  %indvars.iv.next = add nuw nsw i64 %indvars.iv, 1
  %.val34 = load i32, ptr %2, align 4, !tbaa !3
  %14 = sext i32 %.val34 to i64
  %15 = icmp slt i64 %indvars.iv.next, %14
  br i1 %15, label %7, label %.critedge, !llvm.loop !35

.critedge:                                        ; preds = %7, %12, %1
  %putchar = tail call i32 @putchar(i32 10)
  %16 = getelementptr i8, ptr %0, i64 108
  %.val35 = load i32, ptr %16, align 4, !tbaa !3
  %17 = tail call i32 (ptr, ...) @printf(ptr noundef nonnull dereferenceable(1) @.str.5, i32 noundef %.val35)
  %.val3645 = load i32, ptr %16, align 4, !tbaa !3
  %18 = icmp sgt i32 %.val3645, 0
  br i1 %18, label %.lr.ph47, label %.critedge2

.lr.ph47:                                         ; preds = %.critedge
  %19 = getelementptr i8, ptr %0, i64 112
  br label %20

20:                                               ; preds = %.lr.ph47, %25
  %indvars.iv54 = phi i64 [ 0, %.lr.ph47 ], [ %indvars.iv.next55, %25 ]
  %21 = load ptr, ptr %4, align 8, !tbaa !31
  %.val40 = load ptr, ptr %19, align 8, !tbaa !11
  %22 = getelementptr inbounds nuw i32, ptr %.val40, i64 %indvars.iv54
  %23 = load i32, ptr %22, align 4, !tbaa !12
  %24 = tail call ptr @Abc_NamStr(ptr noundef %21, i32 noundef %23) #20
  %.not30 = icmp eq ptr %24, null
  br i1 %.not30, label %.critedge2, label %25

25:                                               ; preds = %20
  %26 = tail call i32 (ptr, ...) @printf(ptr noundef nonnull dereferenceable(1) @.str.3, ptr noundef nonnull %24)
  %indvars.iv.next55 = add nuw nsw i64 %indvars.iv54, 1
  %.val36 = load i32, ptr %16, align 4, !tbaa !3
  %27 = sext i32 %.val36 to i64
  %28 = icmp slt i64 %indvars.iv.next55, %27
  br i1 %28, label %20, label %.critedge2, !llvm.loop !36

.critedge2:                                       ; preds = %20, %25, %.critedge
  %putchar31 = tail call i32 @putchar(i32 10)
  %29 = getelementptr i8, ptr %0, i64 124
  %.val37 = load i32, ptr %29, align 4, !tbaa !3
  %30 = tail call i32 (ptr, ...) @printf(ptr noundef nonnull dereferenceable(1) @.str.6, i32 noundef %.val37)
  %.val3849 = load i32, ptr %29, align 4, !tbaa !3
  %31 = icmp sgt i32 %.val3849, 0
  br i1 %31, label %.lr.ph51, label %.critedge4

.lr.ph51:                                         ; preds = %.critedge2
  %32 = getelementptr i8, ptr %0, i64 128
  br label %33

33:                                               ; preds = %.lr.ph51, %38
  %indvars.iv57 = phi i64 [ 0, %.lr.ph51 ], [ %indvars.iv.next58, %38 ]
  %34 = load ptr, ptr %4, align 8, !tbaa !31
  %.val41 = load ptr, ptr %32, align 8, !tbaa !11
  %35 = getelementptr inbounds nuw i32, ptr %.val41, i64 %indvars.iv57
  %36 = load i32, ptr %35, align 4, !tbaa !12
  %37 = tail call ptr @Abc_NamStr(ptr noundef %34, i32 noundef %36) #20
  %.not32 = icmp eq ptr %37, null
  br i1 %.not32, label %.critedge4, label %38

38:                                               ; preds = %33
  %39 = tail call i32 (ptr, ...) @printf(ptr noundef nonnull dereferenceable(1) @.str.3, ptr noundef nonnull %37)
  %indvars.iv.next58 = add nuw nsw i64 %indvars.iv57, 1
  %.val38 = load i32, ptr %29, align 4, !tbaa !3
  %40 = sext i32 %.val38 to i64
  %41 = icmp slt i64 %indvars.iv.next58, %40
  br i1 %41, label %33, label %.critedge4, !llvm.loop !37

.critedge4:                                       ; preds = %33, %38, %.critedge2
  %putchar33 = tail call i32 @putchar(i32 10)
  ret void
}